target datalayout = "e-m:e-p270:32:32-p271:32:32-p272:64:64-i64:64-i128:128-f80:128-n8:16:32:64-S128"
target triple = "x86_64-pc-linux-gnu"

%struct.prov_cipher_ctx_st = type { [16 x i8], [16 x i8], [16 x i8], ptr, %union.anon, i32, i64, i64, i64, i64, i32, i8, i32, ptr, i32, i64, i32, i64, i32, ptr, ptr, ptr }
%union.anon = type { ptr }
%struct.ossl_param_st = type { ptr, i32, ptr, i64, i64 }

@.str.1 = private unnamed_addr constant [9 x i8] c"cts_mode\00", align 1
@.str.2 = private unnamed_addr constant [64 x i8] c"../openssl/providers/implementations/ciphers/cipher_aes_cts.inc\00", align 1
@__func__.aes_cbc_cts_set_ctx_params = private unnamed_addr constant [27 x i8] c"aes_cbc_cts_set_ctx_params\00", align 1

; Function Attrs: nounwind uwtable
define internal i32 @aes_cbc_cts_set_ctx_params(ptr noundef %0, ptr noundef %1) #0 {
  %3 = alloca i32, align 4
  %4 = alloca ptr, align 8
  %5 = alloca ptr, align 8
  %6 = alloca ptr, align 8
  %7 = alloca ptr, align 8
  %8 = alloca i32, align 4
  %9 = alloca i32, align 4
  store ptr %0, ptr %4, align 8, !tbaa !3
  store ptr %1, ptr %5, align 8, !tbaa !19
  call void @llvm.lifetime.start.p0(i64 8, ptr %6) #3
  %10 = load ptr, ptr %4, align 8, !tbaa !3
  store ptr %10, ptr %6, align 8, !tbaa !23
  call void @llvm.lifetime.start.p0(i64 8, ptr %7) #3
  call void @llvm.lifetime.start.p0(i64 4, ptr %8) #3
  %11 = load ptr, ptr %5, align 8, !tbaa !19
  %12 = call ptr @OSSL_PARAM_locate_const(ptr noundef %11, ptr noundef @.str.1)
  store ptr %12, ptr %7, align 8, !tbaa !19
  %13 = load ptr, ptr %7, align 8, !tbaa !19
  %14 = icmp ne ptr %13, null
  br i1 %14, label %15, label %33

15:                                               ; preds = %2
  %16 = load ptr, ptr %7, align 8, !tbaa !19
  %17 = getelementptr inbounds nuw %struct.ossl_param_st, ptr %16, i32 0, i32 1
  %18 = load i32, ptr %17, align 8, !tbaa !26
  %19 = icmp ne i32 %18, 4
  br i1 %19, label %20, label %21

20:                                               ; preds = %15
  br label %37

21:                                               ; preds = %15
  %22 = load ptr, ptr %7, align 8, !tbaa !19
  %23 = getelementptr inbounds nuw %struct.ossl_param_st, ptr %22, i32 0, i32 2
  %24 = load ptr, ptr %23, align 8, !tbaa !28
  %25 = call i32 @ossl_cipher_cbc_cts_mode_name2id(ptr noundef %24)
  store i32 %25, ptr %8, align 4, !tbaa !29
  %26 = load i32, ptr %8, align 4, !tbaa !29
  %27 = icmp slt i32 %26, 0
  br i1 %27, label %28, label %29

28:                                               ; preds = %21
  br label %37

29:                                               ; preds = %21
  %30 = load i32, ptr %8, align 4, !tbaa !29
  %31 = load ptr, ptr %6, align 8, !tbaa !23
  %32 = getelementptr inbounds nuw %struct.prov_cipher_ctx_st, ptr %31, i32 0, i32 10
  store i32 %30, ptr %32, align 8, !tbaa !25
  br label %33

33:                                               ; preds = %29, %2
  %34 = load ptr, ptr %4, align 8, !tbaa !3
  %35 = load ptr, ptr %5, align 8, !tbaa !19
  %36 = call i32 @ossl_cipher_generic_set_ctx_params(ptr noundef %34, ptr noundef %35)
  store i32 %36, ptr %3, align 4
  store i32 1, ptr %9, align 4
  br label %38

37:                                               ; preds = %28, %20
  call void @ERR_new()
  call void @ERR_set_debug(ptr noundef @.str.2, i32 noundef 85, ptr noundef @__func__.aes_cbc_cts_set_ctx_params)
  call void (i32, i32, ptr, ...) @ERR_set_error(i32 noundef 57, i32 noundef 104, ptr noundef null)
  store i32 0, ptr %3, align 4
  store i32 1, ptr %9, align 4
  br label %38

38:                                               ; preds = %37, %33
  call void @llvm.lifetime.end.p0(i64 4, ptr %8) #3
  call void @llvm.lifetime.end.p0(i64 8, ptr %7) #3
  call void @llvm.lifetime.end.p0(i64 8, ptr %6) #3
  %39 = load i32, ptr %3, align 4
  ret i32 %39
}